ARM GAS  C:\Users\mdmt3\AppData\Local\Temp\ccETkiRp.s 			page 1


   1              		.cpu cortex-m4
   2              		.eabi_attribute 27, 1
   3              		.eabi_attribute 28, 1
   4              		.eabi_attribute 20, 1
   5              		.eabi_attribute 21, 1
   6              		.eabi_attribute 23, 3
   7              		.eabi_attribute 24, 1
   8              		.eabi_attribute 25, 1
   9              		.eabi_attribute 26, 1
  10              		.eabi_attribute 30, 1
  11              		.eabi_attribute 34, 1
  12              		.eabi_attribute 18, 4
  13              		.file	"adc.c"
  14              		.text
  15              	.Ltext0:
  16              		.cfi_sections	.debug_frame
  17              		.section	.text.adc1_channel3_init,"ax",%progbits
  18              		.align	1
  19              		.global	adc1_channel3_init
  20              		.syntax unified
  21              		.thumb
  22              		.thumb_func
  23              		.fpu fpv4-sp-d16
  25              	adc1_channel3_init:
  26              	.LFB130:
  27              		.file 1 "Core/Src/adc.c"
   1:Core/Src/adc.c **** #include "adc.h"
   2:Core/Src/adc.c **** #include "stm32f407xx.h"
   3:Core/Src/adc.c **** 
   4:Core/Src/adc.c **** #define GPIOAEN                     (1U << 0)
   5:Core/Src/adc.c **** #define ADC1_EN                     (1U << 8)
   6:Core/Src/adc.c **** #define ADC_CH3                     0b0011
   7:Core/Src/adc.c **** #define ADC_SQ_LEN_1                0b0000
   8:Core/Src/adc.c **** #define ADC_ADON                    (1U << 0)
   9:Core/Src/adc.c **** #define CR2_SWSTART                 (1U << 30)
  10:Core/Src/adc.c **** #define CR2_CONT                    (1U << 1)
  11:Core/Src/adc.c **** #define SR_EOC                      (1U << 1)
  12:Core/Src/adc.c **** 
  13:Core/Src/adc.c **** /*ADC configured with 3 channels 
  14:Core/Src/adc.c **** ch2, ch3, ch4
  15:Core/Src/adc.c **** first = ch5 SQ1 = 5
  16:Core/Src/adc.c **** second= ch2 SQ2 = 2
  17:Core/Src/adc.c **** third= ch3 SQ3 = 3
  18:Core/Src/adc.c **** */
  19:Core/Src/adc.c **** 
  20:Core/Src/adc.c **** void adc1_channel3_init(void){
  28              		.loc 1 20 0
  29              		.cfi_startproc
  30              		@ args = 0, pretend = 0, frame = 0
  31              		@ frame_needed = 0, uses_anonymous_args = 0
  32              		@ link register save eliminated.
  21:Core/Src/adc.c ****     /***************Configure ADC GPIO pin ***************/
  22:Core/Src/adc.c ****     //1. Enable clock access to the pin
  23:Core/Src/adc.c ****     RCC->AHB1ENR |= GPIOAEN;
  33              		.loc 1 23 0
  34 0000 0E4B     		ldr	r3, .L2
  35 0002 1A6B     		ldr	r2, [r3, #48]
ARM GAS  C:\Users\mdmt3\AppData\Local\Temp\ccETkiRp.s 			page 2


  36 0004 42F00102 		orr	r2, r2, #1
  37 0008 1A63     		str	r2, [r3, #48]
  24:Core/Src/adc.c **** 
  25:Core/Src/adc.c ****     //2. Set PA3 (ADC1_IN3) MODE TO ALTERVATIVE function mode
  26:Core/Src/adc.c ****     GPIOA->MODER |= (1U<<6);
  38              		.loc 1 26 0
  39 000a 0D4A     		ldr	r2, .L2+4
  40 000c 1168     		ldr	r1, [r2]
  41 000e 41F04001 		orr	r1, r1, #64
  42 0012 1160     		str	r1, [r2]
  27:Core/Src/adc.c ****     GPIOA->MODER |= (1U<<7);
  43              		.loc 1 27 0
  44 0014 1168     		ldr	r1, [r2]
  45 0016 41F08001 		orr	r1, r1, #128
  46 001a 1160     		str	r1, [r2]
  28:Core/Src/adc.c ****     
  29:Core/Src/adc.c **** 
  30:Core/Src/adc.c ****     //3. Enable clock for ADC1 RCC
  31:Core/Src/adc.c ****     RCC->APB2ENR |= ADC1_EN;
  47              		.loc 1 31 0
  48 001c 5A6C     		ldr	r2, [r3, #68]
  49 001e 42F48072 		orr	r2, r2, #256
  50 0022 5A64     		str	r2, [r3, #68]
  32:Core/Src/adc.c **** 
  33:Core/Src/adc.c ****     //4. Conversion sequence start
  34:Core/Src/adc.c ****     ADC1->SQR3 = ADC_CH3;
  51              		.loc 1 34 0
  52 0024 A3F58C33 		sub	r3, r3, #71680
  53 0028 0322     		movs	r2, #3
  54 002a 5A63     		str	r2, [r3, #52]
  35:Core/Src/adc.c **** 
  36:Core/Src/adc.c ****     //5. Set sequence length
  37:Core/Src/adc.c ****     ADC1->SQR1 = ADC_SQ_LEN_1;
  55              		.loc 1 37 0
  56 002c 0022     		movs	r2, #0
  57 002e DA62     		str	r2, [r3, #44]
  38:Core/Src/adc.c **** 
  39:Core/Src/adc.c ****     //Enable ADC module
  40:Core/Src/adc.c ****     ADC1->CR2 |= ADC_ADON;
  58              		.loc 1 40 0
  59 0030 9A68     		ldr	r2, [r3, #8]
  60 0032 42F00102 		orr	r2, r2, #1
  61 0036 9A60     		str	r2, [r3, #8]
  62 0038 7047     		bx	lr
  63              	.L3:
  64 003a 00BF     		.align	2
  65              	.L2:
  66 003c 00380240 		.word	1073887232
  67 0040 00000240 		.word	1073872896
  68              		.cfi_endproc
  69              	.LFE130:
  71              		.section	.text.start_conversion,"ax",%progbits
  72              		.align	1
  73              		.global	start_conversion
  74              		.syntax unified
  75              		.thumb
  76              		.thumb_func
ARM GAS  C:\Users\mdmt3\AppData\Local\Temp\ccETkiRp.s 			page 3


  77              		.fpu fpv4-sp-d16
  79              	start_conversion:
  80              	.LFB131:
  41:Core/Src/adc.c **** }
  42:Core/Src/adc.c **** 
  43:Core/Src/adc.c **** void start_conversion(void){
  81              		.loc 1 43 0
  82              		.cfi_startproc
  83              		@ args = 0, pretend = 0, frame = 0
  84              		@ frame_needed = 0, uses_anonymous_args = 0
  85              		@ link register save eliminated.
  44:Core/Src/adc.c **** 
  45:Core/Src/adc.c ****     //Enable Start continuous conversion
  46:Core/Src/adc.c ****     ADC1->CR2 |= CR2_CONT;
  86              		.loc 1 46 0
  87 0000 044B     		ldr	r3, .L5
  88 0002 9A68     		ldr	r2, [r3, #8]
  89 0004 42F00202 		orr	r2, r2, #2
  90 0008 9A60     		str	r2, [r3, #8]
  47:Core/Src/adc.c **** 
  48:Core/Src/adc.c ****     //Start ADC conversion
  49:Core/Src/adc.c ****     ADC1->CR2 |= CR2_SWSTART;
  91              		.loc 1 49 0
  92 000a 9A68     		ldr	r2, [r3, #8]
  93 000c 42F08042 		orr	r2, r2, #1073741824
  94 0010 9A60     		str	r2, [r3, #8]
  95 0012 7047     		bx	lr
  96              	.L6:
  97              		.align	2
  98              	.L5:
  99 0014 00200140 		.word	1073815552
 100              		.cfi_endproc
 101              	.LFE131:
 103              		.section	.text.adc_read,"ax",%progbits
 104              		.align	1
 105              		.global	adc_read
 106              		.syntax unified
 107              		.thumb
 108              		.thumb_func
 109              		.fpu fpv4-sp-d16
 111              	adc_read:
 112              	.LFB132:
  50:Core/Src/adc.c **** }
  51:Core/Src/adc.c **** 
  52:Core/Src/adc.c **** uint32_t adc_read(void){
 113              		.loc 1 52 0
 114              		.cfi_startproc
 115              		@ args = 0, pretend = 0, frame = 0
 116              		@ frame_needed = 0, uses_anonymous_args = 0
 117              		@ link register save eliminated.
 118              	.L8:
  53:Core/Src/adc.c ****     /*Wait for conversion to be complete*/
  54:Core/Src/adc.c ****     while(!(ADC1->SR & SR_EOC)){}
 119              		.loc 1 54 0 discriminator 1
 120 0000 034B     		ldr	r3, .L9
 121 0002 1B68     		ldr	r3, [r3]
 122 0004 13F0020F 		tst	r3, #2
ARM GAS  C:\Users\mdmt3\AppData\Local\Temp\ccETkiRp.s 			page 4


 123 0008 FAD0     		beq	.L8
  55:Core/Src/adc.c **** 
  56:Core/Src/adc.c ****     /* Read converted result*/
  57:Core/Src/adc.c ****     return (ADC1->DR);
 124              		.loc 1 57 0
 125 000a 014B     		ldr	r3, .L9
 126 000c D86C     		ldr	r0, [r3, #76]
  58:Core/Src/adc.c **** }
 127              		.loc 1 58 0
 128 000e 7047     		bx	lr
 129              	.L10:
 130              		.align	2
 131              	.L9:
 132 0010 00200140 		.word	1073815552
 133              		.cfi_endproc
 134              	.LFE132:
 136              		.text
 137              	.Letext0:
 138              		.file 2 "c:\\program files (x86)\\gnu tools arm embedded\\6 2017-q2-update\\arm-none-eabi\\include
 139              		.file 3 "c:\\program files (x86)\\gnu tools arm embedded\\6 2017-q2-update\\arm-none-eabi\\include
 140              		.file 4 "Drivers/CMSIS/Include/core_cm4.h"
 141              		.file 5 "Drivers/CMSIS/Device/ST/STM32F4xx/Include/system_stm32f4xx.h"
 142              		.file 6 "Drivers/CMSIS/Device/ST/STM32F4xx/Include/stm32f407xx.h"
ARM GAS  C:\Users\mdmt3\AppData\Local\Temp\ccETkiRp.s 			page 5

